; Function Attrs: nounwind uwtable
define hidden void @zif_php_ini_loaded_file(ptr nocapture noundef readonly %0, ptr nocapture noundef writeonly %1) local_unnamed_addr #0 {
  %3 = getelementptr inbounds i8, ptr %0, i64 44
  %4 = load i32, ptr %3, align 4
  %.not = icmp eq i32 %4, 0
  br i1 %.not, label %6, label %5

5:                                                ; preds = %2
  tail call void @zend_wrong_parameters_none_error() #14
  br label %21

6:                                                ; preds = %2
  %7 = load ptr, ptr @php_ini_opened_path, align 8
  %.not62 = icmp eq ptr %7, null
  br i1 %.not62, label %19, label %8

8:                                                ; preds = %6
  %9 = tail call i64 @strlen(ptr noundef nonnull dereferenceable(1) %7) #13
  %10 = and i64 %9, -8
  %11 = add i64 %10, 32
  %12 = tail call noalias ptr @_emalloc(i64 noundef %11) #15
  store i32 1, ptr %12, align 4
  %13 = getelementptr inbounds i8, ptr %12, i64 4
  store i32 22, ptr %13, align 4
  %14 = getelementptr inbounds i8, ptr %12, i64 8
  store i64 0, ptr %14, align 8
  %15 = getelementptr inbounds i8, ptr %12, i64 16
  store i64 %9, ptr %15, align 8
  %16 = getelementptr inbounds i8, ptr %12, i64 24
  tail call void @llvm.memcpy.p0.p0.i64(ptr nonnull align 8 %16, ptr nonnull align 1 %7, i64 %9, i1 false)
  %17 = getelementptr inbounds [1 x i8], ptr %16, i64 0, i64 %9
  store i8 0, ptr %17, align 1
  store ptr %12, ptr %1, align 8
  %18 = getelementptr inbounds i8, ptr %1, i64 8
  store i32 262, ptr %18, align 8
  br label %21

19:                                               ; preds = %6
  %20 = getelementptr inbounds i8, ptr %1, i64 8
  store i32 2, ptr %20, align 8
  br label %21

21:                                               ; preds = %19, %8, %5
  ret void
}